target datalayout = "e-m:e-p270:32:32-p271:32:32-p272:64:64-i64:64-i128:128-f80:128-n8:16:32:64-S128"
target triple = "x86_64-pc-linux-gnu"

@_ZZN18fast_double_parserL18parse_float_strtodEPKcPdE8c_locale = internal global ptr null, align 8
@_ZGVZN18fast_double_parserL18parse_float_strtodEPKcPdE8c_locale = internal global i64 0, align 8
@.str.183 = private unnamed_addr constant [2 x i8] c"C\00", align 1

; Function Attrs: mustprogress nounwind uwtable
define linkonce_odr noundef zeroext i1 @_ZSt8isfinited(double noundef %0) #0 comdat {
  %2 = alloca double, align 8
  store double %0, ptr %2, align 8, !tbaa !57
  %3 = load double, ptr %2, align 8, !tbaa !57
  %4 = call i1 @llvm.is.fpclass.f64(double %3, i32 504)
  ret i1 %4
}

; Function Attrs: mustprogress nounwind uwtable
define internal noundef ptr @_ZN18fast_double_parserL18parse_float_strtodEPKcPd(ptr noundef %0, ptr noundef %1) #0 {
  %3 = alloca ptr, align 8
  %4 = alloca ptr, align 8
  %5 = alloca ptr, align 8
  %6 = alloca ptr, align 8
  %7 = alloca i32, align 4
  store ptr %0, ptr %4, align 8, !tbaa !153
  store ptr %1, ptr %5, align 8, !tbaa !15
  call void @llvm.lifetime.start.p0(i64 8, ptr %6) #7
  %8 = load atomic i8, ptr @_ZGVZN18fast_double_parserL18parse_float_strtodEPKcPdE8c_locale acquire, align 8
  %9 = icmp eq i8 %8, 0
  br i1 %9, label %10, label %15, !prof !1483

10:                                               ; preds = %2
  %11 = call i32 @__cxa_guard_acquire(ptr @_ZGVZN18fast_double_parserL18parse_float_strtodEPKcPdE8c_locale) #7
  %12 = icmp ne i32 %11, 0
  br i1 %12, label %13, label %15

13:                                               ; preds = %10
  %14 = call ptr @newlocale(i32 noundef 8127, ptr noundef @.str.183, ptr noundef null) #7
  store ptr %14, ptr @_ZZN18fast_double_parserL18parse_float_strtodEPKcPdE8c_locale, align 8, !tbaa !1484
  call void @__cxa_guard_release(ptr @_ZGVZN18fast_double_parserL18parse_float_strtodEPKcPdE8c_locale) #7
  br label %15

15:                                               ; preds = %13, %10, %2
  %16 = load ptr, ptr %4, align 8, !tbaa !153
  %17 = load ptr, ptr @_ZZN18fast_double_parserL18parse_float_strtodEPKcPdE8c_locale, align 8, !tbaa !1484
  %18 = call double @strtod_l(ptr noundef %16, ptr noundef %6, ptr noundef %17) #7
  %19 = load ptr, ptr %5, align 8, !tbaa !15
  store double %18, ptr %19, align 8, !tbaa !57
  %20 = load ptr, ptr %5, align 8, !tbaa !15
  %21 = load double, ptr %20, align 8, !tbaa !57
  %22 = call noundef zeroext i1 @_ZSt8isfinited(double noundef %21)
  br i1 %22, label %24, label %23

23:                                               ; preds = %15
  store ptr null, ptr %3, align 8
  store i32 1, ptr %7, align 4
  br label %26

24:                                               ; preds = %15
  %25 = load ptr, ptr %6, align 8, !tbaa !153
  store ptr %25, ptr %3, align 8
  store i32 1, ptr %7, align 4
  br label %26

26:                                               ; preds = %24, %23
  call void @llvm.lifetime.end.p0(i64 8, ptr %6) #7
  %27 = load ptr, ptr %3, align 8
  ret ptr %27
}